target datalayout = "e-m:e-p270:32:32-p271:32:32-p272:64:64-i64:64-i128:128-f80:128-n8:16:32:64-S128"
target triple = "x86_64-pc-linux-gnu"

%struct.lr2dt = type { float, float }

; Function Attrs: nounwind uwtable
define internal float @get_interpolate(ptr noundef %0, float noundef %1) #0 {
  %3 = alloca ptr, align 8
  %4 = alloca float, align 4
  %5 = alloca i32, align 4
  store ptr %0, ptr %3, align 8, !tbaa !229
  store float %1, ptr %4, align 4, !tbaa !102
  call void @llvm.lifetime.start.p0(i64 4, ptr %5) #10
  store i32 0, ptr %5, align 4, !tbaa !6
  br label %6

6:                                                ; preds = %16, %2
  %7 = load ptr, ptr %3, align 8, !tbaa !229
  %8 = load i32, ptr %5, align 4, !tbaa !6
  %9 = add nsw i32 %8, 1
  %10 = sext i32 %9 to i64
  %11 = getelementptr inbounds %struct.lr2dt, ptr %7, i64 %10
  %12 = getelementptr inbounds nuw %struct.lr2dt, ptr %11, i32 0, i32 0
  %13 = load float, ptr %12, align 4, !tbaa !231
  %14 = load float, ptr %4, align 4, !tbaa !102
  %15 = fcmp reassoc nsz arcp contract afn olt float %13, %14
  br i1 %15, label %16, label %19

16:                                               ; preds = %6
  %17 = load i32, ptr %5, align 4, !tbaa !6
  %18 = add nsw i32 %17, 1
  store i32 %18, ptr %5, align 4, !tbaa !6
  br label %6

19:                                               ; preds = %6
  %20 = load ptr, ptr %3, align 8, !tbaa !229
  %21 = load i32, ptr %5, align 4, !tbaa !6
  %22 = sext i32 %21 to i64
  %23 = getelementptr inbounds %struct.lr2dt, ptr %20, i64 %22
  %24 = getelementptr inbounds nuw %struct.lr2dt, ptr %23, i32 0, i32 1
  %25 = load float, ptr %24, align 4, !tbaa !233
  %26 = load float, ptr %4, align 4, !tbaa !102
  %27 = load ptr, ptr %3, align 8, !tbaa !229
  %28 = load i32, ptr %5, align 4, !tbaa !6
  %29 = sext i32 %28 to i64
  %30 = getelementptr inbounds %struct.lr2dt, ptr %27, i64 %29
  %31 = getelementptr inbounds nuw %struct.lr2dt, ptr %30, i32 0, i32 0
  %32 = load float, ptr %31, align 4, !tbaa !231
  %33 = fsub reassoc nsz arcp contract afn float %26, %32
  %34 = load ptr, ptr %3, align 8, !tbaa !229
  %35 = load i32, ptr %5, align 4, !tbaa !6
  %36 = add nsw i32 %35, 1
  %37 = sext i32 %36 to i64
  %38 = getelementptr inbounds %struct.lr2dt, ptr %34, i64 %37
  %39 = getelementptr inbounds nuw %struct.lr2dt, ptr %38, i32 0, i32 0
  %40 = load float, ptr %39, align 4, !tbaa !231
  %41 = load ptr, ptr %3, align 8, !tbaa !229
  %42 = load i32, ptr %5, align 4, !tbaa !6
  %43 = sext i32 %42 to i64
  %44 = getelementptr inbounds %struct.lr2dt, ptr %41, i64 %43
  %45 = getelementptr inbounds nuw %struct.lr2dt, ptr %44, i32 0, i32 0
  %46 = load float, ptr %45, align 4, !tbaa !231
  %47 = fsub reassoc nsz arcp contract afn float %40, %46
  %48 = fdiv reassoc nsz arcp contract afn float %33, %47
  %49 = load ptr, ptr %3, align 8, !tbaa !229
  %50 = load i32, ptr %5, align 4, !tbaa !6
  %51 = add nsw i32 %50, 1
  %52 = sext i32 %51 to i64
  %53 = getelementptr inbounds %struct.lr2dt, ptr %49, i64 %52
  %54 = getelementptr inbounds nuw %struct.lr2dt, ptr %53, i32 0, i32 1
  %55 = load float, ptr %54, align 4, !tbaa !233
  %56 = load ptr, ptr %3, align 8, !tbaa !229
  %57 = load i32, ptr %5, align 4, !tbaa !6
  %58 = sext i32 %57 to i64
  %59 = getelementptr inbounds %struct.lr2dt, ptr %56, i64 %58
  %60 = getelementptr inbounds nuw %struct.lr2dt, ptr %59, i32 0, i32 1
  %61 = load float, ptr %60, align 4, !tbaa !233
  %62 = fsub reassoc nsz arcp contract afn float %55, %61
  %63 = fmul reassoc nsz arcp contract afn float %48, %62
  %64 = fadd reassoc nsz arcp contract afn float %25, %63
  call void @llvm.lifetime.end.p0(i64 4, ptr %5) #10
  ret float %64
}

; Function Attrs: nounwind uwtable
define internal float @lr2dt_grain_frequency(float noundef %0) #0 {
  %2 = alloca float, align 4
  %3 = alloca [4 x %struct.lr2dt], align 16
  store float %0, ptr %2, align 4, !tbaa !102
  call void @llvm.lifetime.start.p0(i64 32, ptr %3) #10
  call void @llvm.memcpy.p0.p0.i64(ptr align 16 %3, ptr align 16 @__const.lr2dt_grain_frequency.lr2dt_grain_table, i64 32, i1 false)
  %4 = getelementptr inbounds [4 x %struct.lr2dt], ptr %3, i64 0, i64 0
  %5 = load float, ptr %2, align 4, !tbaa !102
  %6 = call reassoc nsz arcp contract afn float @get_interpolate(ptr noundef %4, float noundef %5)
  %7 = fpext reassoc nsz arcp contract afn float %6 to double
  %8 = fdiv reassoc nsz arcp contract afn double %7, 5.330000e+01
  %9 = fptrunc reassoc nsz arcp contract afn double %8 to float
  call void @llvm.lifetime.end.p0(i64 32, ptr %3) #10
  ret float %9
}