; Function Attrs: nofree norecurse nosync nounwind memory(none) uwtable
define internal fastcc float @lr2dt_grain_frequency(float noundef %0) unnamed_addr #9 {
  br label %2

2:                                                ; preds = %2, %1
  %indvars.iv.i = phi i64 [ %indvars.iv.next.i, %2 ], [ 0, %1 ]
  %indvars.iv.next.i = add nuw nsw i64 %indvars.iv.i, 1
  %3 = getelementptr inbounds nuw %struct.lr2dt, ptr @__const.lr2dt_grain_frequency.lr2dt_grain_table, i64 %indvars.iv.next.i
  %4 = load float, ptr %3, align 8, !tbaa !186
  %5 = fcmp reassoc nsz arcp contract afn olt float %4, %0
  br i1 %5, label %2, label %get_interpolate.exit

get_interpolate.exit:                             ; preds = %2
  %6 = and i64 %indvars.iv.i, 4294967295
  %7 = getelementptr inbounds nuw %struct.lr2dt, ptr @__const.lr2dt_grain_frequency.lr2dt_grain_table, i64 %6
  %8 = getelementptr inbounds nuw i8, ptr %7, i64 4
  %9 = load float, ptr %8, align 4, !tbaa !188
  %10 = load float, ptr %7, align 8, !tbaa !186
  %11 = fsub reassoc nsz arcp contract afn float %0, %10
  %12 = fsub reassoc nsz arcp contract afn float %4, %10
  %13 = getelementptr inbounds nuw %struct.lr2dt, ptr @__const.lr2dt_grain_frequency.lr2dt_grain_table, i64 %indvars.iv.next.i, i32 1
  %14 = load float, ptr %13, align 4, !tbaa !188
  %15 = fsub reassoc nsz arcp contract afn float %14, %9
  %16 = fmul reassoc nsz arcp contract afn float %15, %11
  %17 = fdiv reassoc nsz arcp contract afn float %16, %12
  %18 = fadd reassoc nsz arcp contract afn float %17, %9
  %19 = fpext reassoc nsz arcp contract afn float %18 to double
  %20 = fmul reassoc nsz arcp contract afn double %19, 0x3F9336461FB326E8
  %21 = fptrunc reassoc nsz arcp contract afn double %20 to float
  ret float %21
}